; Function Attrs: mustprogress nounwind uwtable
define hidden noundef ptr @_ZN13StubGenerator24base64_avx2_shuffle_addrEv(ptr noundef nonnull align 8 dereferenceable(24) %0) local_unnamed_addr #0 align 2 {
  %2 = alloca %class.StubCodeMark, align 8
  %3 = getelementptr inbounds i8, ptr %0, i64 16
  %4 = load ptr, ptr %3, align 8
  tail call void @_ZN14MacroAssembler7align32Ev(ptr noundef nonnull align 8 dereferenceable(40) %4) #12
  call void @_ZN12StubCodeMarkC1EP17StubCodeGeneratorPKcS3_(ptr noundef nonnull align 8 dereferenceable(16) %2, ptr noundef nonnull %0, ptr noundef nonnull @.str, ptr noundef nonnull @.str.25) #12
  %5 = load ptr, ptr %3, align 8
  %6 = getelementptr inbounds i8, ptr %5, i64 8
  %7 = load ptr, ptr %6, align 8
  %8 = getelementptr inbounds i8, ptr %7, i64 16
  %9 = load ptr, ptr %8, align 8
  call void @_ZN9Assembler11emit_data64ElN9relocInfo9relocTypeEi(ptr noundef nonnull align 8 dereferenceable(40) %5, i64 noundef 579001758119232517, i32 noundef 0, i32 noundef 0) #12
  %10 = load ptr, ptr %3, align 8
  call void @_ZN9Assembler11emit_data64ElN9relocInfo9relocTypeEi(ptr noundef nonnull align 8 dereferenceable(40) %10, i64 noundef 1013042795147692555, i32 noundef 0, i32 noundef 0) #12
  %11 = load ptr, ptr %3, align 8
  call void @_ZN9Assembler11emit_data64ElN9relocInfo9relocTypeEi(ptr noundef nonnull align 8 dereferenceable(40) %11, i64 noundef 289641066766925825, i32 noundef 0, i32 noundef 0) #12
  %12 = load ptr, ptr %3, align 8
  call void @_ZN9Assembler11emit_data64ElN9relocInfo9relocTypeEi(ptr noundef nonnull align 8 dereferenceable(40) %12, i64 noundef 723682103795385863, i32 noundef 0, i32 noundef 0) #12
  call void @_ZN12StubCodeMarkD1Ev(ptr noundef nonnull align 8 dereferenceable(16) %2) #12
  ret ptr %9
}